; Function Attrs: mustprogress nofree norecurse nosync nounwind willreturn memory(argmem: readwrite) uwtable
define hidden noundef zeroext i1 @_ZNK13proof_checker12match_binaryEPK4exprRP9func_declRPS0_S7_(ptr nocapture noundef nonnull readnone align 8 dereferenceable(156) %this, ptr nocapture noundef readonly %e, ptr nocapture noundef nonnull writeonly align 8 dereferenceable(8) %d, ptr nocapture noundef nonnull writeonly align 8 dereferenceable(8) %t1, ptr nocapture noundef nonnull writeonly align 8 dereferenceable(8) %t2) local_unnamed_addr #10 align 2 {
entry:
  %m_kind.i = getelementptr inbounds i8, ptr %e, i64 4
  %bf.load.i = load i32, ptr %m_kind.i, align 4
  %bf.clear.i = and i32 %bf.load.i, 65535
  %cmp = icmp eq i32 %bf.clear.i, 0
  br i1 %cmp, label %land.lhs.true, label %return

land.lhs.true:                                    ; preds = %entry
  %m_num_args.i = getelementptr inbounds i8, ptr %e, i64 24
  %0 = load i32, ptr %m_num_args.i, align 8
  %cmp4 = icmp eq i32 %0, 2
  br i1 %cmp4, label %if.then, label %return

if.then:                                          ; preds = %land.lhs.true
  %m_decl.i = getelementptr inbounds i8, ptr %e, i64 16
  %1 = load ptr, ptr %m_decl.i, align 8
  store ptr %1, ptr %d, align 8
  %m_args.i = getelementptr inbounds i8, ptr %e, i64 32
  %2 = load ptr, ptr %m_args.i, align 8
  store ptr %2, ptr %t1, align 8
  %arrayidx.i = getelementptr inbounds i8, ptr %e, i64 40
  %3 = load ptr, ptr %arrayidx.i, align 8
  store ptr %3, ptr %t2, align 8
  br label %return

return:                                           ; preds = %entry, %land.lhs.true, %if.then
  %retval.0 = phi i1 [ true, %if.then ], [ false, %land.lhs.true ], [ false, %entry ]
  ret i1 %retval.0
}